target datalayout = "e-m:e-p270:32:32-p271:32:32-p272:64:64-i64:64-i128:128-f80:128-n8:16:32:64-S128"
target triple = "x86_64-pc-linux-gnu"

%struct.ident_t = type { i32, i32, i32, i32, ptr }
%"struct.faiss::AlignedTable" = type { %"struct.faiss::AlignedTableTightAlloc", i64 }
%"struct.faiss::AlignedTableTightAlloc" = type { ptr, i64 }
%"class.std::vector" = type { %"struct.std::_Vector_base" }
%"struct.std::_Vector_base" = type { %"struct.std::_Vector_base<long, std::allocator<long>>::_Vector_impl" }
%"struct.std::_Vector_base<long, std::allocator<long>>::_Vector_impl" = type { %"struct.std::_Vector_base<long, std::allocator<long>>::_Vector_impl_data" }
%"struct.std::_Vector_base<long, std::allocator<long>>::_Vector_impl_data" = type { ptr, ptr, ptr }
%"struct.faiss::Index.base" = type <{ ptr, i32, [4 x i8], i64, i8, i8, [2 x i8], i32, float }>
%"struct.faiss::IndexIVFInterface" = type { ptr, %"struct.faiss::Level1Quantizer", i64, i64 }
%"struct.faiss::Level1Quantizer" = type { ptr, i64, i8, i8, [6 x i8], %"struct.faiss::ClusteringParameters", ptr }
%"struct.faiss::ClusteringParameters" = type <{ i32, i32, i8, i8, i8, i8, i8, [3 x i8], i32, i32, i32, [4 x i8], i64, i8, i8, [6 x i8] }>
%"struct.faiss::DirectMap" = type { i32, %"class.std::vector", %"class.std::unordered_map" }
%"class.std::unordered_map" = type { %"class.std::_Hashtable" }
%"class.std::_Hashtable" = type { ptr, i64, %"struct.std::__detail::_Hash_node_base", i64, %"struct.std::__detail::_Prime_rehash_policy", ptr }
%"struct.std::__detail::_Hash_node_base" = type { ptr }
%"struct.std::__detail::_Prime_rehash_policy" = type { float, i64 }
%"struct.faiss::IndexIVFFastScan" = type { %"struct.faiss::IndexIVF.base", i32, i64, i64, i64, i64, i32, i32, i32, i64, ptr, ptr }
%"struct.faiss::IndexIVF.base" = type <{ %"struct.faiss::Index.base", [4 x i8], %"struct.faiss::IndexIVFInterface", ptr, i8, [7 x i8], i64, i32, i32, %"struct.faiss::DirectMap", i8 }>
%"struct.faiss::AlignedTable.20" = type { %"struct.faiss::AlignedTableTightAlloc.21", i64 }
%"struct.faiss::AlignedTableTightAlloc.21" = type { ptr, i64 }
%"struct.faiss::AlignedTable.22" = type { %"struct.faiss::AlignedTableTightAlloc.23", i64 }
%"struct.faiss::AlignedTableTightAlloc.23" = type { ptr, i64 }

@1 = private unnamed_addr constant %struct.ident_t { i32 0, i32 514, i32 0, i32 22, ptr @0 }, align 8

; Function Attrs: mustprogress nounwind uwtable
define linkonce_odr noundef ptr @_ZN5faiss22AlignedTableTightAllocItLi32EE3getEv(ptr noundef nonnull align 8 dereferenceable(16) %0) #0 comdat align 2 {
  %2 = alloca ptr, align 8
  store ptr %0, ptr %2, align 8, !tbaa !260
  %3 = load ptr, ptr %2, align 8
  %4 = getelementptr inbounds nuw %"struct.faiss::AlignedTableTightAlloc.23", ptr %3, i32 0, i32 0
  %5 = load ptr, ptr %4, align 8, !tbaa !263
  ret ptr %5
}

; Function Attrs: mustprogress nounwind uwtable
define linkonce_odr noundef ptr @_ZN5faiss22AlignedTableTightAllocIhLi32EE3getEv(ptr noundef nonnull align 8 dereferenceable(16) %0) #0 comdat align 2 {
  %2 = alloca ptr, align 8
  store ptr %0, ptr %2, align 8, !tbaa !175
  %3 = load ptr, ptr %2, align 8
  %4 = getelementptr inbounds nuw %"struct.faiss::AlignedTableTightAlloc", ptr %3, i32 0, i32 0
  %5 = load ptr, ptr %4, align 8, !tbaa !177
  ret ptr %5
}

; Function Attrs: mustprogress nounwind uwtable
define linkonce_odr noundef ptr @_ZN5faiss22AlignedTableTightAllocIfLi32EE3getEv(ptr noundef nonnull align 8 dereferenceable(16) %0) #0 comdat align 2 {
  %2 = alloca ptr, align 8
  store ptr %0, ptr %2, align 8, !tbaa !256
  %3 = load ptr, ptr %2, align 8
  %4 = getelementptr inbounds nuw %"struct.faiss::AlignedTableTightAlloc.21", ptr %3, i32 0, i32 0
  %5 = load ptr, ptr %4, align 8, !tbaa !258
  ret ptr %5
}

; Function Attrs: mustprogress uwtable
define linkonce_odr noundef ptr @_ZN5faiss12AlignedTableItLi32EE3getEv(ptr noundef nonnull align 8 dereferenceable(24) %0) #2 comdat align 2 {
  %2 = alloca ptr, align 8
  store ptr %0, ptr %2, align 8, !tbaa !238
  %3 = load ptr, ptr %2, align 8
  %4 = getelementptr inbounds nuw %"struct.faiss::AlignedTable.22", ptr %3, i32 0, i32 0
  %5 = call noundef ptr @_ZN5faiss22AlignedTableTightAllocItLi32EE3getEv(ptr noundef nonnull align 8 dereferenceable(16) %4)
  ret ptr %5
}

; Function Attrs: mustprogress uwtable
define linkonce_odr noundef ptr @_ZN5faiss12AlignedTableIhLi32EE3getEv(ptr noundef nonnull align 8 dereferenceable(24) %0) #2 comdat align 2 {
  %2 = alloca ptr, align 8
  store ptr %0, ptr %2, align 8, !tbaa !137
  %3 = load ptr, ptr %2, align 8
  %4 = getelementptr inbounds nuw %"struct.faiss::AlignedTable", ptr %3, i32 0, i32 0
  %5 = call noundef ptr @_ZN5faiss22AlignedTableTightAllocIhLi32EE3getEv(ptr noundef nonnull align 8 dereferenceable(16) %4)
  ret ptr %5
}

; Function Attrs: mustprogress uwtable
define linkonce_odr noundef ptr @_ZN5faiss12AlignedTableIfLi32EE3getEv(ptr noundef nonnull align 8 dereferenceable(24) %0) #2 comdat align 2 {
  %2 = alloca ptr, align 8
  store ptr %0, ptr %2, align 8, !tbaa !240
  %3 = load ptr, ptr %2, align 8
  %4 = getelementptr inbounds nuw %"struct.faiss::AlignedTable.20", ptr %3, i32 0, i32 0
  %5 = call noundef ptr @_ZN5faiss22AlignedTableTightAllocIfLi32EE3getEv(ptr noundef nonnull align 8 dereferenceable(16) %4)
  ret ptr %5
}

; Function Attrs: noinline norecurse nounwind uwtable
define internal void @_ZNK5faiss16IndexIVFFastScan17compute_LUT_uint8EmPKfRKNS0_15CoarseQuantizedERNS_12AlignedTableIhLi32EEERNS6_ItLi32EEEPf.omp_outlined(ptr noalias noundef %0, ptr noalias noundef %1, ptr noundef nonnull align 8 dereferenceable(8) %2, ptr noundef nonnull align 8 dereferenceable(24) %3, ptr noundef nonnull align 8 dereferenceable(8) %4, ptr noundef nonnull align 8 dereferenceable(24) %5, ptr noundef nonnull align 8 dereferenceable(8) %6, ptr noundef nonnull align 8 dereferenceable(24) %7, ptr noundef nonnull align 8 dereferenceable(8) %8, ptr noundef nonnull align 8 dereferenceable(24) %9, ptr noundef %10, ptr noundef nonnull align 1 dereferenceable(1) %11, ptr noundef nonnull align 8 dereferenceable(8) %12) #22 personality ptr @__gxx_personality_v0 {
  %14 = alloca ptr, align 8
  %15 = alloca ptr, align 8
  %16 = alloca ptr, align 8
  %17 = alloca ptr, align 8
  %18 = alloca ptr, align 8
  %19 = alloca ptr, align 8
  %20 = alloca ptr, align 8
  %21 = alloca ptr, align 8
  %22 = alloca ptr, align 8
  %23 = alloca ptr, align 8
  %24 = alloca ptr, align 8
  %25 = alloca ptr, align 8
  %26 = alloca ptr, align 8
  %27 = alloca ptr, align 8
  %28 = alloca ptr, align 8
  %29 = alloca i64, align 8
  %30 = alloca i64, align 8
  %31 = alloca i64, align 8
  %32 = alloca i64, align 8
  %33 = alloca i64, align 8
  %34 = alloca i64, align 8
  %35 = alloca i64, align 8
  %36 = alloca i32, align 4
  %37 = alloca i64, align 8
  %38 = alloca ptr, align 8
  %39 = alloca ptr, align 8
  %40 = alloca ptr, align 8
  %41 = alloca ptr, align 8
  store ptr %0, ptr %14, align 8, !tbaa !206
  store ptr %1, ptr %15, align 8, !tbaa !206
  store ptr %2, ptr %16, align 8, !tbaa !13
  store ptr %3, ptr %17, align 8, !tbaa !240
  store ptr %4, ptr %18, align 8, !tbaa !13
  store ptr %5, ptr %19, align 8, !tbaa !137
  store ptr %6, ptr %20, align 8, !tbaa !13
  store ptr %7, ptr %21, align 8, !tbaa !240
  store ptr %8, ptr %22, align 8, !tbaa !13
  store ptr %9, ptr %23, align 8, !tbaa !238
  store ptr %10, ptr %24, align 8, !tbaa !4
  store ptr %11, ptr %25, align 8, !tbaa !249
  store ptr %12, ptr %26, align 8, !tbaa !251
  %42 = load ptr, ptr %16, align 8, !tbaa !13
  %43 = load ptr, ptr %17, align 8, !tbaa !240
  %44 = load ptr, ptr %18, align 8, !tbaa !13
  %45 = load ptr, ptr %19, align 8, !tbaa !137
  %46 = load ptr, ptr %20, align 8, !tbaa !13
  %47 = load ptr, ptr %21, align 8, !tbaa !240
  %48 = load ptr, ptr %22, align 8, !tbaa !13
  %49 = load ptr, ptr %23, align 8, !tbaa !238
  %50 = load ptr, ptr %24, align 8, !tbaa !4
  %51 = load ptr, ptr %25, align 8, !tbaa !249
  %52 = load ptr, ptr %26, align 8, !tbaa !251
  store ptr %45, ptr %27, align 8
  store ptr %49, ptr %28, align 8
  call void @llvm.lifetime.start.p0(i64 8, ptr %29) #6
  call void @llvm.lifetime.start.p0(i64 8, ptr %30) #6
  %53 = load i64, ptr %42, align 8, !tbaa !9
  store i64 %53, ptr %30, align 8, !tbaa !9
  call void @llvm.lifetime.start.p0(i64 8, ptr %31) #6
  %54 = load i64, ptr %30, align 8, !tbaa !9
  %55 = sub i64 %54, 0
  %56 = udiv i64 %55, 1
  %57 = sub i64 %56, 1
  store i64 %57, ptr %31, align 8, !tbaa !9
  call void @llvm.lifetime.start.p0(i64 8, ptr %32) #6
  store i64 0, ptr %32, align 8, !tbaa !9
  call void @llvm.lifetime.end.p0(i64 8, ptr %32) #6
  %58 = load i64, ptr %30, align 8, !tbaa !9
  %59 = icmp ult i64 0, %58
  br i1 %59, label %60, label %146

60:                                               ; preds = %13
  call void @llvm.lifetime.start.p0(i64 8, ptr %33) #6
  store i64 0, ptr %33, align 8, !tbaa !9
  call void @llvm.lifetime.start.p0(i64 8, ptr %34) #6
  %61 = load i64, ptr %31, align 8, !tbaa !9
  store i64 %61, ptr %34, align 8, !tbaa !9
  call void @llvm.lifetime.start.p0(i64 8, ptr %35) #6
  store i64 1, ptr %35, align 8, !tbaa !9
  call void @llvm.lifetime.start.p0(i64 4, ptr %36) #6
  store i32 0, ptr %36, align 4, !tbaa !23
  call void @llvm.lifetime.start.p0(i64 8, ptr %37) #6
  %62 = load ptr, ptr %14, align 8
  %63 = load i32, ptr %62, align 4, !tbaa !23
  call void @__kmpc_for_static_init_8u(ptr @1, i32 %63, i32 34, ptr %36, ptr %33, ptr %34, ptr %35, i64 1, i64 1)
  %64 = load i64, ptr %34, align 8, !tbaa !9
  %65 = load i64, ptr %31, align 8, !tbaa !9
  %66 = icmp ugt i64 %64, %65
  br i1 %66, label %67, label %69

67:                                               ; preds = %60
  %68 = load i64, ptr %31, align 8, !tbaa !9
  br label %71

69:                                               ; preds = %60
  %70 = load i64, ptr %34, align 8, !tbaa !9
  br label %71

71:                                               ; preds = %69, %67
  %72 = phi i64 [ %68, %67 ], [ %70, %69 ]
  store i64 %72, ptr %34, align 8, !tbaa !9
  %73 = load i64, ptr %33, align 8, !tbaa !9
  store i64 %73, ptr %29, align 8, !tbaa !9
  br label %74

74:                                               ; preds = %139, %71
  %75 = load i64, ptr %29, align 8, !tbaa !9
  %76 = load i64, ptr %34, align 8, !tbaa !9
  %77 = add i64 %76, 1
  %78 = icmp ult i64 %75, %77
  br i1 %78, label %80, label %79

79:                                               ; preds = %74
  br label %142

80:                                               ; preds = %74
  %81 = load i64, ptr %29, align 8, !tbaa !9
  %82 = mul i64 %81, 1
  %83 = add i64 0, %82
  store i64 %83, ptr %37, align 8, !tbaa !9
  call void @llvm.lifetime.start.p0(i64 8, ptr %38) #6
  %84 = invoke noundef ptr @_ZN5faiss12AlignedTableIfLi32EE3getEv(ptr noundef nonnull align 8 dereferenceable(24) %43)
          to label %85 unwind label %147

85:                                               ; preds = %80
  %86 = load i64, ptr %37, align 8, !tbaa !9
  %87 = load i64, ptr %44, align 8, !tbaa !9
  %88 = mul i64 %86, %87
  %89 = getelementptr inbounds nuw float, ptr %84, i64 %88
  store ptr %89, ptr %38, align 8, !tbaa !11
  call void @llvm.lifetime.start.p0(i64 8, ptr %39) #6
  store ptr null, ptr %39, align 8, !tbaa !11
  call void @llvm.lifetime.start.p0(i64 8, ptr %40) #6
  %90 = load ptr, ptr %27, align 8, !tbaa !137
  %91 = invoke noundef ptr @_ZN5faiss12AlignedTableIhLi32EE3getEv(ptr noundef nonnull align 8 dereferenceable(24) %90)
          to label %92 unwind label %147

92:                                               ; preds = %85
  %93 = load i64, ptr %37, align 8, !tbaa !9
  %94 = load i64, ptr %46, align 8, !tbaa !9
  %95 = mul i64 %93, %94
  %96 = getelementptr inbounds nuw i8, ptr %91, i64 %95
  store ptr %96, ptr %40, align 8, !tbaa !83
  call void @llvm.lifetime.start.p0(i64 8, ptr %41) #6
  store ptr null, ptr %41, align 8, !tbaa !253
  %97 = invoke noundef ptr @_ZN5faiss12AlignedTableIfLi32EE3getEv(ptr noundef nonnull align 8 dereferenceable(24) %47)
          to label %98 unwind label %147

98:                                               ; preds = %92
  %99 = icmp ne ptr %97, null
  br i1 %99, label %100, label %114

100:                                              ; preds = %98
  %101 = invoke noundef ptr @_ZN5faiss12AlignedTableIfLi32EE3getEv(ptr noundef nonnull align 8 dereferenceable(24) %47)
          to label %102 unwind label %147

102:                                              ; preds = %100
  %103 = load i64, ptr %37, align 8, !tbaa !9
  %104 = load i64, ptr %48, align 8, !tbaa !9
  %105 = mul i64 %103, %104
  %106 = getelementptr inbounds nuw float, ptr %101, i64 %105
  store ptr %106, ptr %39, align 8, !tbaa !11
  %107 = load ptr, ptr %28, align 8, !tbaa !238
  %108 = invoke noundef ptr @_ZN5faiss12AlignedTableItLi32EE3getEv(ptr noundef nonnull align 8 dereferenceable(24) %107)
          to label %109 unwind label %147

109:                                              ; preds = %102
  %110 = load i64, ptr %37, align 8, !tbaa !9
  %111 = load i64, ptr %48, align 8, !tbaa !9
  %112 = mul i64 %110, %111
  %113 = getelementptr inbounds nuw i16, ptr %108, i64 %112
  store ptr %113, ptr %41, align 8, !tbaa !253
  br label %114

114:                                              ; preds = %109, %98
  %115 = load i64, ptr %48, align 8, !tbaa !9
  %116 = getelementptr inbounds nuw %"struct.faiss::IndexIVFFastScan", ptr %50, i32 0, i32 2
  %117 = load i64, ptr %116, align 8, !tbaa !62
  %118 = getelementptr inbounds nuw %"struct.faiss::IndexIVFFastScan", ptr %50, i32 0, i32 4
  %119 = load i64, ptr %118, align 8, !tbaa !121
  %120 = load i8, ptr %51, align 1, !tbaa !85, !range !21, !noundef !22
  %121 = trunc i8 %120 to i1
  %122 = load ptr, ptr %38, align 8, !tbaa !11
  %123 = load ptr, ptr %39, align 8, !tbaa !11
  %124 = load ptr, ptr %40, align 8, !tbaa !83
  %125 = getelementptr inbounds nuw %"struct.faiss::IndexIVFFastScan", ptr %50, i32 0, i32 5
  %126 = load i64, ptr %125, align 8, !tbaa !66
  %127 = load ptr, ptr %41, align 8, !tbaa !253
  %128 = load ptr, ptr %52, align 8, !tbaa !11
  %129 = load i64, ptr %37, align 8, !tbaa !9
  %130 = mul nsw i64 2, %129
  %131 = getelementptr inbounds float, ptr %128, i64 %130
  %132 = load ptr, ptr %52, align 8, !tbaa !11
  %133 = load i64, ptr %37, align 8, !tbaa !9
  %134 = mul nsw i64 2, %133
  %135 = getelementptr inbounds float, ptr %132, i64 %134
  %136 = getelementptr inbounds float, ptr %135, i64 1
  invoke void @_ZN5faiss12quantize_lut21quantize_LUT_and_biasEmmmbPKfS2_PhmPtPfS5_(i64 noundef %115, i64 noundef %117, i64 noundef %119, i1 noundef zeroext %121, ptr noundef %122, ptr noundef %123, ptr noundef %124, i64 noundef %126, ptr noundef %127, ptr noundef %131, ptr noundef %136)
          to label %137 unwind label %147

137:                                              ; preds = %114
  call void @llvm.lifetime.end.p0(i64 8, ptr %41) #6
  call void @llvm.lifetime.end.p0(i64 8, ptr %40) #6
  call void @llvm.lifetime.end.p0(i64 8, ptr %39) #6
  call void @llvm.lifetime.end.p0(i64 8, ptr %38) #6
  br label %138

138:                                              ; preds = %137
  br label %139

139:                                              ; preds = %138
  %140 = load i64, ptr %29, align 8, !tbaa !9
  %141 = add i64 %140, 1
  store i64 %141, ptr %29, align 8, !tbaa !9
  br label %74

142:                                              ; preds = %79
  br label %143

143:                                              ; preds = %142
  %144 = load ptr, ptr %14, align 8
  %145 = load i32, ptr %144, align 4, !tbaa !23
  call void @__kmpc_for_static_fini(ptr @1, i32 %145)
  call void @llvm.lifetime.end.p0(i64 8, ptr %37) #6
  call void @llvm.lifetime.end.p0(i64 4, ptr %36) #6
  call void @llvm.lifetime.end.p0(i64 8, ptr %35) #6
  call void @llvm.lifetime.end.p0(i64 8, ptr %34) #6
  call void @llvm.lifetime.end.p0(i64 8, ptr %33) #6
  br label %146

146:                                              ; preds = %143, %13
  call void @llvm.lifetime.end.p0(i64 8, ptr %31) #6
  call void @llvm.lifetime.end.p0(i64 8, ptr %30) #6
  call void @llvm.lifetime.end.p0(i64 8, ptr %29) #6
  ret void

147:                                              ; preds = %114, %102, %100, %92, %85, %80
  %148 = landingpad { ptr, i32 }
          catch ptr null
  %149 = extractvalue { ptr, i32 } %148, 0
  call void @__clang_call_terminate(ptr %149) #28
  unreachable
}