; Function Attrs: noinline norecurse nounwind uwtable
define internal void @_ZNK5faiss16IndexIVFFastScan17compute_LUT_uint8EmPKfRKNS0_15CoarseQuantizedERNS_12AlignedTableIhLi32EEERNS6_ItLi32EEEPf.omp_outlined(ptr noalias noundef readonly captures(none) %0, ptr noalias readnone captures(none) %1, ptr noundef nonnull readonly align 8 captures(none) dereferenceable(8) %2, ptr noundef nonnull readonly align 8 captures(none) dereferenceable(24) %3, ptr noundef nonnull readonly align 8 captures(none) dereferenceable(8) %4, ptr noundef nonnull readonly align 8 captures(none) dereferenceable(24) %5, ptr noundef nonnull readonly align 8 captures(none) dereferenceable(8) %6, ptr noundef nonnull readonly align 8 captures(none) dereferenceable(24) %7, ptr noundef nonnull readonly align 8 captures(none) dereferenceable(8) %8, ptr noundef nonnull readonly align 8 captures(none) dereferenceable(24) %9, ptr noundef readonly captures(none) %10, ptr noundef nonnull readonly align 1 captures(none) dereferenceable(1) %11, ptr noundef nonnull readonly align 8 captures(none) dereferenceable(8) %12) #24 personality ptr @__gxx_personality_v0 {
  %14 = alloca i64, align 8
  %15 = alloca i64, align 8
  %16 = alloca i64, align 8
  %17 = alloca i32, align 4
  %18 = load i64, ptr %2, align 8, !tbaa !54
  %.not = icmp eq i64 %18, 0
  br i1 %.not, label %56, label %19

19:                                               ; preds = %13
  %20 = add i64 %18, -1
  call void @llvm.lifetime.start.p0(i64 8, ptr nonnull %14) #25
  store i64 0, ptr %14, align 8, !tbaa !54
  call void @llvm.lifetime.start.p0(i64 8, ptr nonnull %15) #25
  store i64 %20, ptr %15, align 8, !tbaa !54
  call void @llvm.lifetime.start.p0(i64 8, ptr nonnull %16) #25
  store i64 1, ptr %16, align 8, !tbaa !54
  call void @llvm.lifetime.start.p0(i64 4, ptr nonnull %17) #25
  store i32 0, ptr %17, align 4, !tbaa !79
  %21 = load i32, ptr %0, align 4, !tbaa !79
  call void @__kmpc_for_static_init_8u(ptr nonnull @1, i32 %21, i32 34, ptr nonnull %17, ptr nonnull %14, ptr nonnull %15, ptr nonnull %16, i64 1, i64 1)
  %22 = load i64, ptr %15, align 8, !tbaa !54
  %23 = call i64 @llvm.umin.i64(i64 %22, i64 %20)
  store i64 %23, ptr %15, align 8, !tbaa !54
  %24 = load i64, ptr %14, align 8, !tbaa !54
  %.not36 = icmp ugt i64 %24, %23
  br i1 %.not36, label %._crit_edge, label %.lr.ph

.lr.ph:                                           ; preds = %19
  %25 = getelementptr inbounds nuw i8, ptr %10, i64 272
  %26 = getelementptr inbounds nuw i8, ptr %10, i64 288
  %27 = getelementptr inbounds nuw i8, ptr %10, i64 296
  br label %28

28:                                               ; preds = %.lr.ph, %51
  %.03235 = phi i64 [ %24, %.lr.ph ], [ %52, %51 ]
  %29 = load ptr, ptr %3, align 8, !tbaa !125
  %30 = load i64, ptr %4, align 8, !tbaa !54
  %31 = mul i64 %30, %.03235
  %32 = getelementptr inbounds nuw float, ptr %29, i64 %31
  %33 = load ptr, ptr %5, align 8, !tbaa !67
  %34 = load i64, ptr %6, align 8, !tbaa !54
  %35 = mul i64 %34, %.03235
  %36 = getelementptr inbounds nuw i8, ptr %33, i64 %35
  %37 = load ptr, ptr %7, align 8, !tbaa !125
  %.not34 = icmp eq ptr %37, null
  %38 = load i64, ptr %8, align 8
  %39 = load ptr, ptr %9, align 8
  %40 = mul i64 %38, %.03235
  %41 = getelementptr inbounds nuw float, ptr %37, i64 %40
  %42 = getelementptr inbounds nuw i16, ptr %39, i64 %40
  %.033 = select i1 %.not34, ptr null, ptr %41
  %.0 = select i1 %.not34, ptr null, ptr %42
  %43 = load i64, ptr %25, align 8, !tbaa !59
  %44 = load i64, ptr %26, align 8, !tbaa !96
  %45 = load i8, ptr %11, align 1, !tbaa !124, !range !13, !noundef !14
  %46 = trunc nuw i8 %45 to i1
  %47 = load i64, ptr %27, align 8, !tbaa !63
  %48 = load ptr, ptr %12, align 8, !tbaa !78
  %.idx = shl nsw i64 %.03235, 3
  %49 = getelementptr inbounds i8, ptr %48, i64 %.idx
  %50 = getelementptr inbounds nuw i8, ptr %49, i64 4
  invoke void @_ZN5faiss12quantize_lut21quantize_LUT_and_biasEmmmbPKfS2_PhmPtPfS5_(i64 noundef %38, i64 noundef %43, i64 noundef %44, i1 noundef zeroext %46, ptr noundef %32, ptr noundef %.033, ptr noundef %36, i64 noundef %47, ptr noundef %.0, ptr noundef nonnull %49, ptr noundef nonnull %50)
          to label %51 unwind label %57

51:                                               ; preds = %28
  %52 = add nuw i64 %.03235, 1
  %53 = load i64, ptr %15, align 8, !tbaa !54
  %54 = add i64 %53, 1
  %55 = icmp ult i64 %52, %54
  br i1 %55, label %28, label %._crit_edge

._crit_edge:                                      ; preds = %51, %19
  call void @__kmpc_for_static_fini(ptr nonnull @1, i32 %21)
  call void @llvm.lifetime.end.p0(i64 4, ptr nonnull %17) #25
  call void @llvm.lifetime.end.p0(i64 8, ptr nonnull %16) #25
  call void @llvm.lifetime.end.p0(i64 8, ptr nonnull %15) #25
  call void @llvm.lifetime.end.p0(i64 8, ptr nonnull %14) #25
  br label %56

56:                                               ; preds = %._crit_edge, %13
  ret void

57:                                               ; preds = %28
  %58 = landingpad { ptr, i32 }
          catch ptr null
  %59 = extractvalue { ptr, i32 } %58, 0
  call void @__clang_call_terminate(ptr %59) #37
  unreachable
}